Archive member included to satisfy reference by file (symbol)

lib/libstd.a(printf.o)        obj/kernel_main.o (printf)
lib/libstd.a(string.o)        lib/libstd.a(printf.o) (strlen)

Discarded input sections

 .group         0x0000000000000000        0x8 obj/gdt.o
 .group         0x0000000000000000        0x8 obj/gdt.o
 .group         0x0000000000000000        0x8 obj/kernel_main.o
 .group         0x0000000000000000        0x8 obj/kernel_main.o
 .text.__x86.get_pc_thunk.ax
                0x0000000000000000        0x4 obj/kernel_main.o
 .text.__x86.get_pc_thunk.bx
                0x0000000000000000        0x4 obj/kernel_main.o
 .group         0x0000000000000000        0x8 obj/textmode.o
 .text.__x86.get_pc_thunk.ax
                0x0000000000000000        0x4 obj/textmode.o
 .group         0x0000000000000000        0x8 lib/libstd.a(printf.o)
 .text.__x86.get_pc_thunk.bx
                0x0000000000000000        0x4 lib/libstd.a(printf.o)
 .group         0x0000000000000000        0x8 lib/libstd.a(string.o)
 .group         0x0000000000000000        0x8 lib/libstd.a(string.o)
 .text.__x86.get_pc_thunk.ax
                0x0000000000000000        0x4 lib/libstd.a(string.o)

Memory Configuration

Name             Origin             Length             Attributes
*default*        0x0000000000000000 0xffffffffffffffff

Linker script and memory map

LOAD obj/boot.o
LOAD obj/gdt.o
LOAD obj/kernel_main.o
LOAD obj/portio.o
LOAD obj/textmode.o
                0x0000000000100000                . = 0x100000

.text           0x0000000000100000      0xc27
 *(.multiboot)
 .multiboot     0x0000000000100000        0xc obj/boot.o
 *(.text)
 *fill*         0x000000000010000c        0x4 
 .text          0x0000000000100010       0x29 obj/boot.o
                0x000000000010002b                _start
 .text          0x0000000000100039      0x117 obj/gdt.o
                0x0000000000100039                gdt_init
                0x00000000001000bc                gdt_add_entry
 .text          0x0000000000100150      0x1fe obj/kernel_main.o
                0x0000000000100150                init_kernel
                0x000000000010020e                kernel_loop
                0x0000000000100222                kernel_main
                0x0000000000100280                vga_init
                0x00000000001002fc                mem_init
                0x000000000010033a                interrupts_init
 *fill*         0x000000000010034e        0x2 
 .text          0x0000000000100350       0x10 obj/portio.o
                0x0000000000100350                inportb
                0x0000000000100356                outportb
 .text          0x0000000000100360      0x519 obj/textmode.o
                0x0000000000100360                vga_set_bg
                0x0000000000100399                vga_set_fg
                0x00000000001003d1                vga_set_color
                0x00000000001003f8                vga_print_char
                0x0000000000100469                vga_increment
                0x0000000000100499                vga_sync_frame
                0x00000000001004e4                vga_clear
                0x000000000010053b                vga_movexy
                0x0000000000100580                vga_param
 .text          0x0000000000100879      0x1a6 lib/libstd.a(printf.o)
                0x0000000000100879                printf
 .text          0x0000000000100a1f      0x208 lib/libstd.a(string.o)
                0x0000000000100a1f                strlen
                0x0000000000100a5c                reverse
                0x0000000000100b11                itoa

.iplt           0x0000000000100c28        0x0
 .iplt          0x0000000000100c28        0x0 obj/boot.o

.text.__x86.get_pc_thunk.ax
                0x0000000000100c27        0x4
 .text.__x86.get_pc_thunk.ax
                0x0000000000100c27        0x4 obj/gdt.o
                0x0000000000100c27                __x86.get_pc_thunk.ax

.text.__x86.get_pc_thunk.bx
                0x0000000000100c2b        0x4
 .text.__x86.get_pc_thunk.bx
                0x0000000000100c2b        0x4 obj/gdt.o
                0x0000000000100c2b                __x86.get_pc_thunk.bx

.text.__x86.get_pc_thunk.cx
                0x0000000000100c2f        0x4
 .text.__x86.get_pc_thunk.cx
                0x0000000000100c2f        0x4 lib/libstd.a(string.o)
                0x0000000000100c2f                __x86.get_pc_thunk.cx

.rodata         0x0000000000101000      0x171
 *(.rodata)
 .rodata        0x0000000000101000       0x1e obj/gdt.o
                0x0000000000101000                GDTPOINTER
                0x0000000000101004                GDTSIZE
 *fill*         0x000000000010101e        0x2 
 .rodata        0x0000000000101020       0xf2 obj/kernel_main.o
 *fill*         0x0000000000101112        0x2 
 .rodata        0x0000000000101114       0x14 obj/textmode.o
                0x0000000000101114                VRAM
                0x0000000000101118                VGABUFFER
                0x000000000010111c                VGACOLOR
                0x0000000000101120                VGACURSOR
                0x0000000000101124                VGAPARAM
 .rodata        0x0000000000101128        0x7 lib/libstd.a(printf.o)
 *fill*         0x000000000010112f       0x11 
 .rodata        0x0000000000101140       0x31 lib/libstd.a(string.o)

.eh_frame       0x0000000000101174      0x3bc
 .eh_frame      0x0000000000101174       0x8c obj/gdt.o
 .eh_frame      0x0000000000101200       0xcc obj/kernel_main.o
                                        0x10c (size before relaxing)
 .eh_frame      0x00000000001012cc      0x1c4 obj/textmode.o
                                        0x1f0 (size before relaxing)
 .eh_frame      0x0000000000101490       0x24 lib/libstd.a(printf.o)
                                         0x50 (size before relaxing)
 .eh_frame      0x00000000001014b4       0x7c lib/libstd.a(string.o)
                                         0xa8 (size before relaxing)

.rel.dyn        0x0000000000101530        0x0
 .rel.got       0x0000000000101530        0x0 obj/boot.o
 .rel.iplt      0x0000000000101530        0x0 obj/boot.o

.data           0x0000000000102000        0x1
 *(.data)
 .data          0x0000000000102000        0x0 obj/gdt.o
 .data          0x0000000000102000        0x0 obj/kernel_main.o
 .data          0x0000000000102000        0x0 obj/textmode.o
 .data          0x0000000000102000        0x0 lib/libstd.a(printf.o)
 .data          0x0000000000102000        0x1 lib/libstd.a(string.o)
                0x0000000000102000                itoa_long

.got            0x0000000000102004        0x0
 .got           0x0000000000102004        0x0 obj/boot.o

.got.plt        0x0000000000102004        0xc
 .got.plt       0x0000000000102004        0xc obj/boot.o
                0x0000000000102004                _GLOBAL_OFFSET_TABLE_

.igot.plt       0x0000000000102010        0x0
 .igot.plt      0x0000000000102010        0x0 obj/boot.o

.bss            0x0000000000103000     0x8004
 *(COMMON)
 *(.bss)
 .bss           0x0000000000103000     0x8000 obj/boot.o
 .bss           0x000000000010b000        0x0 obj/gdt.o
 .bss           0x000000000010b000        0x0 obj/kernel_main.o
 .bss           0x000000000010b000        0x0 obj/textmode.o
 .bss           0x000000000010b000        0x0 lib/libstd.a(printf.o)
 .bss           0x000000000010b000        0x4 lib/libstd.a(string.o)
                0x000000000010b000                itoa_case
LOAD lib/libstd.a
OUTPUT(bin/coffee elf32-i386)

.comment        0x0000000000000000       0x2a
 .comment       0x0000000000000000       0x2a obj/gdt.o
                                         0x2b (size before relaxing)
 .comment       0x000000000000002a       0x2b obj/kernel_main.o
 .comment       0x000000000000002a       0x2b obj/textmode.o
 .comment       0x000000000000002a       0x2b lib/libstd.a(printf.o)
 .comment       0x000000000000002a       0x2b lib/libstd.a(string.o)

.note.GNU-stack
                0x0000000000000000        0x0
 .note.GNU-stack
                0x0000000000000000        0x0 obj/gdt.o
 .note.GNU-stack
                0x0000000000000000        0x0 obj/kernel_main.o
 .note.GNU-stack
                0x0000000000000000        0x0 obj/textmode.o
 .note.GNU-stack
                0x0000000000000000        0x0 lib/libstd.a(printf.o)
 .note.GNU-stack
                0x0000000000000000        0x0 lib/libstd.a(string.o)
